target datalayout = "e-m:e-p270:32:32-p271:32:32-p272:64:64-i64:64-i128:128-f80:128-n8:16:32:64-S128"
target triple = "x86_64-pc-linux-gnu"

@.str = private unnamed_addr constant [20 x i8] c"ALIGNOF_MAX_ALIGN_T\00", align 1
@.str.1 = private unnamed_addr constant [14 x i8] c"Py_T_PYSSIZET\00", align 1
@.str.2 = private unnamed_addr constant [12 x i8] c"Py_READONLY\00", align 1
@HeapCTypeWithRelativeDict_spec = internal global { ptr, i32, i32, i32, [4 x i8], ptr } { ptr @.str.38, i32 -16, i32 0, i32 1024, [4 x i8] zeroinitializer, ptr @.compoundliteral.43 }, align 8
@HeapCTypeWithRelativeWeakref_spec = internal global { ptr, i32, i32, i32, [4 x i8], ptr } { ptr @.str.45, i32 -16, i32 0, i32 1024, [4 x i8] zeroinitializer, ptr @.compoundliteral.49 }, align 8

; Function Attrs: inlinehint nounwind uwtable
define internal void @Py_DECREF(ptr noundef %0) #3 {
  %2 = alloca ptr, align 8
  store ptr %0, ptr %2, align 8, !tbaa !3
  %3 = load ptr, ptr %2, align 8, !tbaa !3
  call void @_Py_DecRef(ptr noundef %3)
  ret void
}

; Function Attrs: nounwind uwtable
define hidden i32 @_PyTestLimitedCAPI_Init_HeaptypeRelative(ptr noundef %0) #0 {
  %2 = alloca i32, align 4
  %3 = alloca ptr, align 8
  %4 = alloca ptr, align 8
  %5 = alloca i32, align 4
  store ptr %0, ptr %3, align 8, !tbaa !3
  %6 = load ptr, ptr %3, align 8, !tbaa !3
  %7 = call i32 @PyModule_AddFunctions(ptr noundef %6, ptr noundef @TestMethods)
  %8 = icmp slt i32 %7, 0
  br i1 %8, label %9, label %10

9:                                                ; preds = %1
  store i32 -1, ptr %2, align 4
  br label %51

10:                                               ; preds = %1
  %11 = load ptr, ptr %3, align 8, !tbaa !3
  %12 = call i32 @PyModule_AddIntConstant(ptr noundef %11, ptr noundef @.str, i64 noundef 16)
  %13 = icmp slt i32 %12, 0
  br i1 %13, label %14, label %15

14:                                               ; preds = %10
  store i32 -1, ptr %2, align 4
  br label %51

15:                                               ; preds = %10
  call void @llvm.lifetime.start.p0(i64 8, ptr %4) #7
  %16 = call ptr @PyType_FromSpec(ptr noundef @HeapCTypeWithRelativeDict_spec)
  store ptr %16, ptr %4, align 8, !tbaa !3
  %17 = load ptr, ptr %4, align 8, !tbaa !3
  %18 = icmp ne ptr %17, null
  br i1 %18, label %20, label %19

19:                                               ; preds = %15
  store i32 -1, ptr %2, align 4
  store i32 1, ptr %5, align 4
  br label %50

20:                                               ; preds = %15
  %21 = load ptr, ptr %3, align 8, !tbaa !3
  %22 = load ptr, ptr %4, align 8, !tbaa !3
  %23 = call i32 @PyModule_AddType(ptr noundef %21, ptr noundef %22)
  %24 = icmp slt i32 %23, 0
  br i1 %24, label %25, label %26

25:                                               ; preds = %20
  store i32 -1, ptr %2, align 4
  store i32 1, ptr %5, align 4
  br label %50

26:                                               ; preds = %20
  %27 = load ptr, ptr %4, align 8, !tbaa !3
  call void @Py_DECREF(ptr noundef %27)
  %28 = call ptr @PyType_FromSpec(ptr noundef @HeapCTypeWithRelativeWeakref_spec)
  store ptr %28, ptr %4, align 8, !tbaa !3
  %29 = load ptr, ptr %4, align 8, !tbaa !3
  %30 = icmp ne ptr %29, null
  br i1 %30, label %32, label %31

31:                                               ; preds = %26
  store i32 -1, ptr %2, align 4
  store i32 1, ptr %5, align 4
  br label %50

32:                                               ; preds = %26
  %33 = load ptr, ptr %3, align 8, !tbaa !3
  %34 = load ptr, ptr %4, align 8, !tbaa !3
  %35 = call i32 @PyModule_AddType(ptr noundef %33, ptr noundef %34)
  %36 = icmp slt i32 %35, 0
  br i1 %36, label %37, label %38

37:                                               ; preds = %32
  store i32 -1, ptr %2, align 4
  store i32 1, ptr %5, align 4
  br label %50

38:                                               ; preds = %32
  %39 = load ptr, ptr %4, align 8, !tbaa !3
  call void @Py_DECREF(ptr noundef %39)
  %40 = load ptr, ptr %3, align 8, !tbaa !3
  %41 = call i32 @PyModule_AddIntConstant(ptr noundef %40, ptr noundef @.str.1, i64 noundef 19)
  %42 = icmp slt i32 %41, 0
  br i1 %42, label %43, label %44

43:                                               ; preds = %38
  store i32 -1, ptr %2, align 4
  store i32 1, ptr %5, align 4
  br label %50

44:                                               ; preds = %38
  %45 = load ptr, ptr %3, align 8, !tbaa !3
  %46 = call i32 @PyModule_AddIntConstant(ptr noundef %45, ptr noundef @.str.2, i64 noundef 1)
  %47 = icmp slt i32 %46, 0
  br i1 %47, label %48, label %49

48:                                               ; preds = %44
  store i32 -1, ptr %2, align 4
  store i32 1, ptr %5, align 4
  br label %50

49:                                               ; preds = %44
  store i32 0, ptr %2, align 4
  store i32 1, ptr %5, align 4
  br label %50

50:                                               ; preds = %49, %48, %43, %37, %31, %25, %19
  call void @llvm.lifetime.end.p0(i64 8, ptr %4) #7
  br label %51

51:                                               ; preds = %50, %14, %9
  %52 = load i32, ptr %2, align 4
  ret i32 %52
}