; Function Attrs: nounwind uwtable
define hidden range(i32 -1, 1) i32 @_PyTestLimitedCAPI_Init_HeaptypeRelative(ptr noundef %0) local_unnamed_addr #0 {
  %2 = tail call i32 @PyModule_AddFunctions(ptr noundef %0, ptr noundef nonnull @TestMethods) #8
  %3 = icmp slt i32 %2, 0
  br i1 %3, label %22, label %4

4:                                                ; preds = %1
  %5 = tail call i32 @PyModule_AddIntConstant(ptr noundef %0, ptr noundef nonnull @.str, i64 noundef 16) #8
  %6 = icmp slt i32 %5, 0
  br i1 %6, label %22, label %7

7:                                                ; preds = %4
  %8 = tail call ptr @PyType_FromSpec(ptr noundef nonnull @HeapCTypeWithRelativeDict_spec) #8
  %.not = icmp eq ptr %8, null
  br i1 %.not, label %22, label %9

9:                                                ; preds = %7
  %10 = tail call i32 @PyModule_AddType(ptr noundef %0, ptr noundef nonnull %8) #8
  %11 = icmp slt i32 %10, 0
  br i1 %11, label %22, label %12

12:                                               ; preds = %9
  tail call void @_Py_DecRef(ptr noundef nonnull %8) #8
  %13 = tail call ptr @PyType_FromSpec(ptr noundef nonnull @HeapCTypeWithRelativeWeakref_spec) #8
  %.not14 = icmp eq ptr %13, null
  br i1 %.not14, label %22, label %14

14:                                               ; preds = %12
  %15 = tail call i32 @PyModule_AddType(ptr noundef %0, ptr noundef nonnull %13) #8
  %16 = icmp slt i32 %15, 0
  br i1 %16, label %22, label %17

17:                                               ; preds = %14
  tail call void @_Py_DecRef(ptr noundef nonnull %13) #8
  %18 = tail call i32 @PyModule_AddIntConstant(ptr noundef %0, ptr noundef nonnull @.str.1, i64 noundef 19) #8
  %19 = icmp slt i32 %18, 0
  br i1 %19, label %22, label %20

20:                                               ; preds = %17
  %21 = tail call i32 @PyModule_AddIntConstant(ptr noundef %0, ptr noundef nonnull @.str.2, i64 noundef 1) #8
  %.lobit = ashr i32 %21, 31
  br label %22

22:                                               ; preds = %7, %9, %12, %14, %17, %20, %4, %1
  %.0 = phi i32 [ -1, %1 ], [ -1, %4 ], [ -1, %7 ], [ -1, %9 ], [ -1, %12 ], [ -1, %14 ], [ -1, %17 ], [ %.lobit, %20 ]
  ret i32 %.0
}